; Function Attrs: mustprogress nofree norecurse nosync nounwind willreturn memory(read, inaccessiblemem: none) uwtable
define noundef zeroext i1 @_ZNK10OpenSubdiv6v3_6_03Bfr16PatchTreeBuilder18faceAncestorIsRootEii(ptr nocapture noundef nonnull readonly align 8 dereferenceable(80) %0, i32 noundef %1, i32 noundef %2) local_unnamed_addr #10 align 2 {
  %4 = icmp sgt i32 %1, 0
  br i1 %4, label %.lr.ph, label %._crit_edge

.lr.ph:                                           ; preds = %3
  %5 = getelementptr inbounds nuw i8, ptr %0, i64 8
  %6 = load ptr, ptr %5, align 8
  %7 = getelementptr inbounds nuw i8, ptr %6, i64 72
  %8 = load ptr, ptr %7, align 8
  %9 = zext nneg i32 %1 to i64
  br label %10

10:                                               ; preds = %.lr.ph, %10
  %indvars.iv = phi i64 [ %9, %.lr.ph ], [ %indvars.iv.next, %10 ]
  %.067 = phi i32 [ %2, %.lr.ph ], [ %17, %10 ]
  %indvars.iv.next = add nsw i64 %indvars.iv, -1
  %11 = getelementptr inbounds ptr, ptr %8, i64 %indvars.iv.next
  %12 = load ptr, ptr %11, align 8
  %13 = getelementptr inbounds nuw i8, ptr %12, i64 264
  %14 = sext i32 %.067 to i64
  %15 = load ptr, ptr %13, align 8
  %16 = getelementptr inbounds i32, ptr %15, i64 %14
  %17 = load i32, ptr %16, align 4
  %18 = icmp ugt i64 %indvars.iv, 1
  br i1 %18, label %10, label %._crit_edge, !llvm.loop !15

._crit_edge:                                      ; preds = %10, %3
  %.06.lcssa = phi i32 [ %2, %3 ], [ %17, %10 ]
  %19 = getelementptr inbounds nuw i8, ptr %0, i64 16
  %20 = load i32, ptr %19, align 8
  %21 = icmp eq i32 %.06.lcssa, %20
  ret i1 %21
}